target datalayout = "e-m:e-p270:32:32-p271:32:32-p272:64:64-i64:64-i128:128-f80:128-n8:16:32:64-S128"
target triple = "x86_64-pc-linux-gnu"

%struct.hb_sparseset_t = type { %struct.hb_object_header_t, %struct.hb_bit_set_invertible_t }
%struct.hb_object_header_t = type { %struct.hb_reference_count_t, %struct.hb_atomic_int_t, %struct.hb_atomic_ptr_t }
%struct.hb_reference_count_t = type { %struct.hb_atomic_int_t }
%struct.hb_atomic_int_t = type { i32 }
%struct.hb_atomic_ptr_t = type { ptr }
%struct.hb_bit_set_invertible_t = type <{ %struct.hb_bit_set_t, i8, [7 x i8] }>
%struct.hb_bit_set_t = type { i8, i32, %struct.hb_atomic_int_t, %struct.hb_vector_t, %struct.hb_vector_t.0 }
%struct.hb_vector_t = type { i32, i32, ptr }
%struct.hb_vector_t.0 = type { i32, i32, ptr }

; Function Attrs: mustprogress nounwind uwtable
define linkonce_odr hidden void @_ZN23hb_bit_set_invertible_t6invertEv(ptr noundef nonnull align 8 dereferenceable(49) %0) #3 comdat align 2 {
  %2 = alloca ptr, align 8
  store ptr %0, ptr %2, align 8
  %3 = load ptr, ptr %2, align 8
  %4 = getelementptr inbounds %struct.hb_bit_set_invertible_t, ptr %3, i32 0, i32 0
  %5 = getelementptr inbounds %struct.hb_bit_set_t, ptr %4, i32 0, i32 0
  %6 = load i8, ptr %5, align 8
  %7 = trunc i8 %6 to i1
  br i1 %7, label %8, label %15

8:                                                ; preds = %1
  %9 = getelementptr inbounds %struct.hb_bit_set_invertible_t, ptr %3, i32 0, i32 1
  %10 = load i8, ptr %9, align 8
  %11 = trunc i8 %10 to i1
  %12 = xor i1 %11, true
  %13 = getelementptr inbounds %struct.hb_bit_set_invertible_t, ptr %3, i32 0, i32 1
  %14 = zext i1 %12 to i8
  store i8 %14, ptr %13, align 8
  br label %15

15:                                               ; preds = %8, %1
  ret void
}

; Function Attrs: mustprogress uwtable
define linkonce_odr hidden void @_ZN14hb_sparseset_tI23hb_bit_set_invertible_tE6invertEv(ptr noundef nonnull align 8 dereferenceable(72) %0) #0 comdat align 2 {
  %2 = alloca ptr, align 8
  store ptr %0, ptr %2, align 8
  %3 = load ptr, ptr %2, align 8
  %4 = getelementptr inbounds %struct.hb_sparseset_t, ptr %3, i32 0, i32 1
  call void @_ZN23hb_bit_set_invertible_t6invertEv(ptr noundef nonnull align 8 dereferenceable(49) %4)
  ret void
}

; Function Attrs: mustprogress uwtable
define hidden void @hb_set_invert(ptr noundef %0) #0 {
  %2 = alloca ptr, align 8
  store ptr %0, ptr %2, align 8
  %3 = load ptr, ptr %2, align 8
  call void @_ZN14hb_sparseset_tI23hb_bit_set_invertible_tE6invertEv(ptr noundef nonnull align 8 dereferenceable(72) %3)
  ret void
}