; Function Attrs: mustprogress nofree norecurse nosync nounwind willreturn memory(argmem: readwrite) uwtable
define hidden void @hb_set_invert(ptr nocapture noundef %0) local_unnamed_addr #8 {
  %2 = getelementptr inbounds i8, ptr %0, i64 16
  %3 = load i8, ptr %2, align 8
  %4 = trunc i8 %3 to i1
  br i1 %4, label %5, label %_ZN14hb_sparseset_tI23hb_bit_set_invertible_tE6invertEv.exit

5:                                                ; preds = %1
  %6 = getelementptr inbounds i8, ptr %0, i64 64
  %7 = load i8, ptr %6, align 8
  %8 = and i8 %7, 1
  %9 = xor i8 %8, 1
  store i8 %9, ptr %6, align 8
  br label %_ZN14hb_sparseset_tI23hb_bit_set_invertible_tE6invertEv.exit

_ZN14hb_sparseset_tI23hb_bit_set_invertible_tE6invertEv.exit: ; preds = %1, %5
  ret void
}